; Function Attrs: mustprogress nounwind sspstrong uwtable
define noundef zeroext i16 @_ZN3tbb6detail2r114execution_slotERKNS0_2d115task_arena_baseE(ptr noundef nonnull readonly align 8 captures(none) dereferenceable(48) %0) local_unnamed_addr #5 {
  %2 = load i32, ptr @_ZN3tbb6detail2r18governor6theTLSE, align 4, !tbaa !111
  %3 = tail call noundef ptr @pthread_getspecific(i32 noundef %2) #13
  %.not.i = icmp eq ptr %3, null
  br i1 %.not.i, label %_ZN3tbb6detail2r115task_arena_impl14execution_slotERKNS0_2d115task_arena_baseE.exit, label %4

4:                                                ; preds = %1
  %5 = getelementptr inbounds nuw i8, ptr %0, i64 16
  %6 = load atomic i64, ptr %5 monotonic, align 8
  %.0.i.i.i = inttoptr i64 %6 to ptr
  %7 = getelementptr inbounds nuw i8, ptr %3, i64 32
  %8 = load ptr, ptr %7, align 8, !tbaa !115
  %9 = icmp eq ptr %8, %.0.i.i.i
  br i1 %9, label %10, label %_ZN3tbb6detail2r115task_arena_impl14execution_slotERKNS0_2d115task_arena_baseE.exit

10:                                               ; preds = %4
  %11 = getelementptr inbounds nuw i8, ptr %3, i64 16
  %12 = load i16, ptr %11, align 8, !tbaa !86
  br label %_ZN3tbb6detail2r115task_arena_impl14execution_slotERKNS0_2d115task_arena_baseE.exit

_ZN3tbb6detail2r115task_arena_impl14execution_slotERKNS0_2d115task_arena_baseE.exit: ; preds = %1, %4, %10
  %.0.i = phi i16 [ %12, %10 ], [ -1, %4 ], [ -1, %1 ]
  ret i16 %.0.i
}